gplink-1.4.0 #1107 (Apr  3 2018)
Copyright (c) 1998-2014 gputils project
Listing File Generated: 9-3-2022  22:21:36
 
 
Address  Value    Disassembly              Source
-------  -----    -----------              ------
                                           ;--------------------------------------------------------
                                           ; File Created by SDCC : free open source ANSI-C Compiler
                                           ; Version 4.0.0 #11528 (Linux)
                                           ;--------------------------------------------------------
                                           ; PIC port for the 14-bit core
                                           ;--------------------------------------------------------
                                           ;	.file	"main.c"
                                           	list	p=12f675
                                           	radix dec
                                           	include "p12f675.inc"
                                                   LIST
                                           
                                           ;==========================================================================
                                           ; Build date : Aug 07 2014
                                           ;  MPASM PIC12F675 processor include
                                           ; 
                                           ;  (c) Copyright 1999-2014 Microchip Technology, All rights reserved
                                           ;==========================================================================
                                           
                                                   NOLIST
                                           ;--------------------------------------------------------
                                           ; config word(s)
                                           ;--------------------------------------------------------
002007   3fd7     addlw   0xd7             	__config 0x3fd7
                                           ;--------------------------------------------------------
                                           ; external declarations
                                           ;--------------------------------------------------------
                                           	extern	__muluchar
                                           	extern	_ANSEL
                                           	extern	_VRCON
                                           	extern	_TRISIO
                                           	extern	_CMCON
                                           	extern	_GPIObits
                                           	extern	__sdcc_gsinit_startup
                                           ;--------------------------------------------------------
                                           ; global declarations
                                           ;--------------------------------------------------------
                                           	global	_main
                                           	global	_display
                                           	global	_delay
                                           	global	_dividirby10
                                           	global	_residuo
                                           
                                           	global PSAVE
                                           	global SSAVE
                                           	global WSAVE
                                           	global STK12
                                           	global STK11
                                           	global STK10
                                           	global STK09
                                           	global STK08
                                           	global STK07
                                           	global STK06
                                           	global STK05
                                           	global STK04
                                           	global STK03
                                           	global STK02
                                           	global STK01
                                           	global STK00
                                           
                                           sharebank udata_ovr 0x0020
                                           PSAVE	res 1
                                           SSAVE	res 1
                                           WSAVE	res 1
                                           STK12	res 1
                                           STK11	res 1
                                           STK10	res 1
                                           STK09	res 1
                                           STK08	res 1
                                           STK07	res 1
                                           STK06	res 1
                                           STK05	res 1
                                           STK04	res 1
                                           STK03	res 1
                                           STK02	res 1
                                           STK01	res 1
                                           STK00	res 1
                                           
                                           ;--------------------------------------------------------
                                           ; global definitions
                                           ;--------------------------------------------------------
                                           ;--------------------------------------------------------
                                           ; absolute symbol definitions
                                           ;--------------------------------------------------------
                                           ;--------------------------------------------------------
                                           ; compiler-defined variables
                                           ;--------------------------------------------------------
                                           UDL_main_0	udata
                                           r0x1011	res	1
                                           r0x1012	res	1
                                           r0x1013	res	1
                                           r0x1014	res	1
                                           r0x1015	res	1
                                           r0x1010	res	1
                                           r0x1009	res	1
                                           r0x1008	res	1
                                           r0x100A	res	1
                                           r0x100B	res	1
                                           r0x100C	res	1
                                           r0x100D	res	1
                                           r0x100E	res	1
                                           r0x100F	res	1
                                           r0x1004	res	1
                                           r0x1005	res	1
                                           r0x1006	res	1
                                           r0x1007	res	1
                                           r0x1001	res	1
                                           r0x1002	res	1
                                           r0x1003	res	1
                                           _main_bandera_65537_6	res	1
                                           ;--------------------------------------------------------
                                           ; initialized data
                                           ;--------------------------------------------------------
                                           ;--------------------------------------------------------
                                           ; initialized absolute data
                                           ;--------------------------------------------------------
                                           ;--------------------------------------------------------
                                           ; overlayable items in internal ram 
                                           ;--------------------------------------------------------
                                           ;	udata_ovr
                                           ;--------------------------------------------------------
                                           ; reset vector 
                                           ;--------------------------------------------------------
                                           STARTUP	code 0x0000
000000   0000     nop                      	nop
                                           	pagesel __sdcc_gsinit_startup
000001   2802     goto    0x0002           	goto	__sdcc_gsinit_startup
                                           ;--------------------------------------------------------
                                           ; code
                                           ;--------------------------------------------------------
                                           code_main	code
                                           ;***
                                           ;  pBlock Stats: dbName = M
                                           ;***
                                           ;has an exit
                                           ;functions called:
                                           ;   _dividirby10
                                           ;   _residuo
                                           ;   _display
                                           ;   _delay
                                           ;   _display
                                           ;   _delay
                                           ;   _display
                                           ;   _delay
                                           ;   _display
                                           ;   _delay
                                           ;   _delay
                                           ;   _delay
                                           ;   _delay
                                           ;   _dividirby10
                                           ;   _residuo
                                           ;   _display
                                           ;   _delay
                                           ;   _display
                                           ;   _delay
                                           ;   _display
                                           ;   _delay
                                           ;   _display
                                           ;   _delay
                                           ;   _delay
                                           ;   _delay
                                           ;   _delay
                                           ;7 compiler assigned registers:
                                           ;   r0x1011
                                           ;   r0x1012
                                           ;   r0x1013
                                           ;   STK01
                                           ;   STK00
                                           ;   r0x1014
                                           ;   r0x1015
                                           ;; Starting pCode block
                                           S_main__main	code
                                           _main:
                                           ; 2 exit points
                                           ;	.line	13; "main.c"	TRISIO = 0b00001000; 
00009e   3008     movlw   0x08             	MOVLW	0x08
00009f   1683     bsf     0x03, 0x5        	BANKSEL	_TRISIO
0000a0   0085     movwf   0x05             	MOVWF	_TRISIO
                                           ;	.line	14; "main.c"	ANSEL  = 0x00;  
0000a1   019f     clrf    0x1f             	CLRF	_ANSEL
                                           ;	.line	15; "main.c"	CMCON  = 0x07; 
0000a2   3007     movlw   0x07             	MOVLW	0x07
0000a3   1283     bcf     0x03, 0x5        	BANKSEL	_CMCON
0000a4   0099     movwf   0x19             	MOVWF	_CMCON
                                           ;	.line	16; "main.c"	VRCON  = 0x00; 
0000a5   1683     bsf     0x03, 0x5        	BANKSEL	_VRCON
0000a6   0199     clrf    0x19             	CLRF	_VRCON
                                           ;	.line	17; "main.c"	unsigned char num0 = 0; 
0000a7   01b0     clrf    0x30             	CLRF	r0x1011
                                           ;	.line	20; "main.c"	unsigned char counter = 0;
0000a8   01b1     clrf    0x31             	CLRF	r0x1012
                                           _00122_DS_:
                                           ;	.line	26; "main.c"	num0++;
0000a9   0ab0     incf    0x30, 0x1        	INCF	r0x1011,F
                                           ;;unsigned compare: left < lit(0x64=100), size=1
                                           ;	.line	27; "main.c"	if (num0 >= 100){
0000aa   3064     movlw   0x64             	MOVLW	0x64
                                           ;	.line	28; "main.c"	num0 = 0;
0000ab   0230     subwf   0x30, 0x0        	SUBWF	r0x1011,W
                                           ;	.line	31; "main.c"	num1 = dividirby10(num0);
0000ac   1803     btfsc   0x03, 0x0        	BTFSC	STATUS,0
0000ad   01b0     clrf    0x30             	CLRF	r0x1011
0000ae   0830     movf    0x30, 0x0        	MOVF	r0x1011,W
                                           	PAGESEL	_dividirby10
0000af   21ac     call    0x01ac           	CALL	_dividirby10
                                           	PAGESEL	$
                                           ;	.line	32; "main.c"	num2 = residuo(num0, 10, num1);
0000b0   00b2     movwf   0x32             	MOVWF	r0x1013
0000b1   00ae     movwf   0x2e             	MOVWF	STK01
0000b2   300a     movlw   0x0a             	MOVLW	0x0a
0000b3   00af     movwf   0x2f             	MOVWF	STK00
0000b4   0830     movf    0x30, 0x0        	MOVF	r0x1011,W
                                           	PAGESEL	_residuo
0000b5   222f     call    0x022f           	CALL	_residuo
                                           	PAGESEL	$
0000b6   00b3     movwf   0x33             	MOVWF	r0x1014
                                           ;;swapping arguments (AOP_TYPEs 1/2)
                                           ;;unsigned compare: left >= lit(0xA=10), size=1
                                           ;	.line	34; "main.c"	if (num0 <= 9){
0000b7   300a     movlw   0x0a             	MOVLW	0x0a
0000b8   0230     subwf   0x30, 0x0        	SUBWF	r0x1011,W
0000b9   1803     btfsc   0x03, 0x0        	BTFSC	STATUS,0
0000ba   28be     goto    0x00be           	GOTO	_00108_DS_
                                           ;;genSkipc:3307: created from rifx:0x7fff48c0f9c0
                                           ;	.line	35; "main.c"	num1 = num0;
0000bb   0830     movf    0x30, 0x0        	MOVF	r0x1011,W
0000bc   00b2     movwf   0x32             	MOVWF	r0x1013
                                           ;	.line	36; "main.c"	num2 = 0;
0000bd   01b3     clrf    0x33             	CLRF	r0x1014
                                           _00108_DS_:
                                           ;	.line	39; "main.c"	if(GP3 == 1){
0000be   01b4     clrf    0x34             	CLRF	r0x1015
0000bf   1283     bcf     0x03, 0x5        	BANKSEL	_GPIObits
0000c0   1985     btfsc   0x05, 0x3        	BTFSC	_GPIObits,3
0000c1   0ab4     incf    0x34, 0x1        	INCF	r0x1015,F
0000c2   0834     movf    0x34, 0x0        	MOVF	r0x1015,W
0000c3   3a01     xorlw   0x01             	XORLW	0x01
0000c4   1d03     btfss   0x03, 0x2        	BTFSS	STATUS,2
0000c5   28e6     goto    0x00e6           	GOTO	_00117_DS_
                                           ;	.line	41; "main.c"	counter++;
0000c6   0ab1     incf    0x31, 0x1        	INCF	r0x1012,F
                                           ;	.line	44; "main.c"	if(bandera == 1){
0000c7   0845     movf    0x45, 0x0        	MOVF	_main_bandera_65537_6,W
0000c8   3a01     xorlw   0x01             	XORLW	0x01
0000c9   1d03     btfss   0x03, 0x2        	BTFSS	STATUS,2
0000ca   28cd     goto    0x00cd           	GOTO	_00113_DS_
                                           ;	.line	45; "main.c"	counter = 0;
0000cb   01b1     clrf    0x31             	CLRF	r0x1012
                                           ;	.line	46; "main.c"	bandera = 0;
0000cc   01c5     clrf    0x45             	CLRF	_main_bandera_65537_6
                                           _00113_DS_:
                                           ;	.line	48; "main.c"	while (GP3 == 1){
0000cd   01b4     clrf    0x34             	CLRF	r0x1015
0000ce   1283     bcf     0x03, 0x5        	BANKSEL	_GPIObits
0000cf   1985     btfsc   0x05, 0x3        	BTFSC	_GPIObits,3
0000d0   0ab4     incf    0x34, 0x1        	INCF	r0x1015,F
0000d1   0834     movf    0x34, 0x0        	MOVF	r0x1015,W
0000d2   3a01     xorlw   0x01             	XORLW	0x01
0000d3   1d03     btfss   0x03, 0x2        	BTFSS	STATUS,2
0000d4   28e6     goto    0x00e6           	GOTO	_00117_DS_
                                           ;	.line	49; "main.c"	display(num1);
0000d5   0832     movf    0x32, 0x0        	MOVF	r0x1013,W
                                           	PAGESEL	_display
0000d6   2114     call    0x0114           	CALL	_display
                                           	PAGESEL	$
                                           ;	.line	50; "main.c"	GP5 = 1;
0000d7   1283     bcf     0x03, 0x5        	BANKSEL	_GPIObits
0000d8   1685     bsf     0x05, 0x5        	BSF	_GPIObits,5
                                           ;	.line	51; "main.c"	delay(2);
0000d9   3002     movlw   0x02             	MOVLW	0x02
0000da   00af     movwf   0x2f             	MOVWF	STK00
0000db   3000     movlw   0x00             	MOVLW	0x00
                                           	PAGESEL	_delay
0000dc   2208     call    0x0208           	CALL	_delay
                                           	PAGESEL	$
                                           ;	.line	52; "main.c"	display(num2);
0000dd   0833     movf    0x33, 0x0        	MOVF	r0x1014,W
                                           	PAGESEL	_display
0000de   2114     call    0x0114           	CALL	_display
                                           	PAGESEL	$
                                           ;	.line	53; "main.c"	GP5 = 0;
0000df   1283     bcf     0x03, 0x5        	BANKSEL	_GPIObits
0000e0   1285     bcf     0x05, 0x5        	BCF	_GPIObits,5
                                           ;	.line	54; "main.c"	delay(2);
0000e1   3002     movlw   0x02             	MOVLW	0x02
0000e2   00af     movwf   0x2f             	MOVWF	STK00
0000e3   3000     movlw   0x00             	MOVLW	0x00
                                           	PAGESEL	_delay
0000e4   2208     call    0x0208           	CALL	_delay
                                           	PAGESEL	$
0000e5   28cd     goto    0x00cd           	GOTO	_00113_DS_
                                           _00117_DS_:
                                           ;	.line	57; "main.c"	if(counter == 15){
0000e6   0831     movf    0x31, 0x0        	MOVF	r0x1012,W
0000e7   3a0f     xorlw   0x0f             	XORLW	0x0f
0000e8   1d03     btfss   0x03, 0x2        	BTFSS	STATUS,2
0000e9   28fd     goto    0x00fd           	GOTO	_00119_DS_
                                           ;	.line	58; "main.c"	display(9);
0000ea   3009     movlw   0x09             	MOVLW	0x09
                                           	PAGESEL	_display
0000eb   2114     call    0x0114           	CALL	_display
                                           	PAGESEL	$
                                           ;	.line	59; "main.c"	GP5 = 0;
0000ec   1283     bcf     0x03, 0x5        	BANKSEL	_GPIObits
0000ed   1285     bcf     0x05, 0x5        	BCF	_GPIObits,5
                                           ;	.line	60; "main.c"	delay(1);
0000ee   3001     movlw   0x01             	MOVLW	0x01
0000ef   00af     movwf   0x2f             	MOVWF	STK00
0000f0   3000     movlw   0x00             	MOVLW	0x00
                                           	PAGESEL	_delay
0000f1   2208     call    0x0208           	CALL	_delay
                                           	PAGESEL	$
                                           ;	.line	61; "main.c"	display(9);
0000f2   3009     movlw   0x09             	MOVLW	0x09
                                           	PAGESEL	_display
0000f3   2114     call    0x0114           	CALL	_display
                                           	PAGESEL	$
                                           ;	.line	62; "main.c"	GP5 = 1;
0000f4   1283     bcf     0x03, 0x5        	BANKSEL	_GPIObits
0000f5   1685     bsf     0x05, 0x5        	BSF	_GPIObits,5
                                           ;	.line	63; "main.c"	delay(1);
0000f6   3001     movlw   0x01             	MOVLW	0x01
0000f7   00af     movwf   0x2f             	MOVWF	STK00
0000f8   3000     movlw   0x00             	MOVLW	0x00
                                           	PAGESEL	_delay
0000f9   2208     call    0x0208           	CALL	_delay
                                           	PAGESEL	$
                                           ;	.line	64; "main.c"	bandera = 1;
0000fa   3001     movlw   0x01             	MOVLW	0x01
0000fb   00c5     movwf   0x45             	MOVWF	_main_bandera_65537_6
0000fc   28a9     goto    0x00a9           	GOTO	_00122_DS_
                                           _00119_DS_:
                                           ;	.line	67; "main.c"	GP0 = 0;
0000fd   1283     bcf     0x03, 0x5        	BANKSEL	_GPIObits
0000fe   1005     bcf     0x05, 0x0        	BCF	_GPIObits,0
                                           ;	.line	68; "main.c"	GP1 = 1;    
0000ff   1485     bsf     0x05, 0x1        	BSF	_GPIObits,1
                                           ;	.line	69; "main.c"	GP2 = 1;
000100   1505     bsf     0x05, 0x2        	BSF	_GPIObits,2
                                           ;	.line	70; "main.c"	GP4 = 1;
000101   1605     bsf     0x05, 0x4        	BSF	_GPIObits,4
                                           ;	.line	71; "main.c"	delay(1);
000102   3001     movlw   0x01             	MOVLW	0x01
000103   00af     movwf   0x2f             	MOVWF	STK00
000104   3000     movlw   0x00             	MOVLW	0x00
                                           	PAGESEL	_delay
000105   2208     call    0x0208           	CALL	_delay
                                           	PAGESEL	$
                                           ;	.line	72; "main.c"	GP5 = 0;
000106   1283     bcf     0x03, 0x5        	BANKSEL	_GPIObits
000107   1285     bcf     0x05, 0x5        	BCF	_GPIObits,5
                                           ;	.line	73; "main.c"	delay(1);
000108   3001     movlw   0x01             	MOVLW	0x01
000109   00af     movwf   0x2f             	MOVWF	STK00
00010a   3000     movlw   0x00             	MOVLW	0x00
                                           	PAGESEL	_delay
00010b   2208     call    0x0208           	CALL	_delay
                                           	PAGESEL	$
                                           ;	.line	74; "main.c"	GP5 = 1;
00010c   1283     bcf     0x03, 0x5        	BANKSEL	_GPIObits
00010d   1685     bsf     0x05, 0x5        	BSF	_GPIObits,5
                                           ;	.line	75; "main.c"	delay(1);
00010e   3001     movlw   0x01             	MOVLW	0x01
00010f   00af     movwf   0x2f             	MOVWF	STK00
000110   3000     movlw   0x00             	MOVLW	0x00
                                           	PAGESEL	_delay
000111   2208     call    0x0208           	CALL	_delay
                                           	PAGESEL	$
000112   28a9     goto    0x00a9           	GOTO	_00122_DS_
                                           ;	.line	79; "main.c"	}
000113   0008     return                   	RETURN	
                                           ; exit point of _main
                                           
                                           ;***
                                           ;  pBlock Stats: dbName = C
                                           ;***
                                           ;has an exit
                                           ;functions called:
                                           ;   __muluchar
                                           ;   __muluchar
                                           ;5 compiler assigned registers:
                                           ;   r0x1001
                                           ;   STK00
                                           ;   r0x1002
                                           ;   STK01
                                           ;   r0x1003
                                           ;; Starting pCode block
                                           S_main__residuo	code
                                           _residuo:
                                           ; 2 exit points
                                           ;	.line	168; "main.c"	unsigned char residuo(unsigned char num0, unsigned char divisor, unsigned char num1) {
00022f   00c2     movwf   0x42             	MOVWF	r0x1001
000230   082f     movf    0x2f, 0x0        	MOVF	STK00,W
000231   00c3     movwf   0x43             	MOVWF	r0x1002
000232   082e     movf    0x2e, 0x0        	MOVF	STK01,W
000233   00c4     movwf   0x44             	MOVWF	r0x1003
                                           ;	.line	170; "main.c"	r = num0 - num1*divisor;
000234   0843     movf    0x43, 0x0        	MOVF	r0x1002,W
000235   00af     movwf   0x2f             	MOVWF	STK00
000236   0844     movf    0x44, 0x0        	MOVF	r0x1003,W
                                           	PAGESEL	__muluchar
000237   21dd     call    0x01dd           	CALL	__muluchar
                                           	PAGESEL	$
000238   082f     movf    0x2f, 0x0        	MOVF	STK00,W
000239   00c3     movwf   0x43             	MOVWF	r0x1002
00023a   02c2     subwf   0x42, 0x1        	SUBWF	r0x1001,F
                                           ;	.line	171; "main.c"	return r;
00023b   0842     movf    0x42, 0x0        	MOVF	r0x1001,W
                                           ;	.line	172; "main.c"	}
00023c   0008     return                   	RETURN	
                                           ; exit point of _residuo
                                           
                                           ;***
                                           ;  pBlock Stats: dbName = C
                                           ;***
                                           ;has an exit
                                           ;4 compiler assigned registers:
                                           ;   r0x1004
                                           ;   r0x1005
                                           ;   r0x1006
                                           ;   r0x1007
                                           ;; Starting pCode block
                                           S_main__dividirby10	code
                                           _dividirby10:
                                           ; 2 exit points
                                           ;	.line	158; "main.c"	unsigned char dividirby10(unsigned char n) {
0001ac   00be     movwf   0x3e             	MOVWF	r0x1004
                                           ;;shiftRight_Left2ResultLit:5474: shCount=1, size=1, sign=0, same=0, offr=0
                                           ;	.line	160; "main.c"	q = (n >> 1) + (n >> 2);
0001ad   1003     bcf     0x03, 0x0        	BCF	STATUS,0
0001ae   0c3e     rrf     0x3e, 0x0        	RRF	r0x1004,W
0001af   00bf     movwf   0x3f             	MOVWF	r0x1005
                                           ;;shiftRight_Left2ResultLit:5474: shCount=1, size=1, sign=0, same=0, offr=0
0001b0   1003     bcf     0x03, 0x0        	BCF	STATUS,0
0001b1   0c3e     rrf     0x3e, 0x0        	RRF	r0x1004,W
0001b2   00c0     movwf   0x40             	MOVWF	r0x1006
                                           ;;shiftRight_Left2ResultLit:5474: shCount=1, size=1, sign=0, same=1, offr=0
0001b3   1003     bcf     0x03, 0x0        	BCF	STATUS,0
0001b4   0cc0     rrf     0x40, 0x1        	RRF	r0x1006,F
0001b5   0840     movf    0x40, 0x0        	MOVF	r0x1006,W
0001b6   07bf     addwf   0x3f, 0x1        	ADDWF	r0x1005,F
                                           ;	.line	161; "main.c"	q = q + (q >> 4);
0001b7   0e3f     swapf   0x3f, 0x0        	SWAPF	r0x1005,W
0001b8   390f     andlw   0x0f             	ANDLW	0x0f
0001b9   00c0     movwf   0x40             	MOVWF	r0x1006
0001ba   073f     addwf   0x3f, 0x0        	ADDWF	r0x1005,W
0001bb   00c0     movwf   0x40             	MOVWF	r0x1006
                                           ;;shiftRight_Left2ResultLit:5474: shCount=1, size=1, sign=0, same=0, offr=0
                                           ;	.line	164; "main.c"	q = q >> 3;
0001bc   1003     bcf     0x03, 0x0        	BCF	STATUS,0
0001bd   0c40     rrf     0x40, 0x0        	RRF	r0x1006,W
0001be   00bf     movwf   0x3f             	MOVWF	r0x1005
                                           ;;shiftRight_Left2ResultLit:5474: shCount=1, size=1, sign=0, same=1, offr=0
0001bf   1003     bcf     0x03, 0x0        	BCF	STATUS,0
0001c0   0cbf     rrf     0x3f, 0x1        	RRF	r0x1005,F
                                           ;;shiftRight_Left2ResultLit:5474: shCount=1, size=1, sign=0, same=1, offr=0
0001c1   1003     bcf     0x03, 0x0        	BCF	STATUS,0
0001c2   0cbf     rrf     0x3f, 0x1        	RRF	r0x1005,F
                                           ;	.line	165; "main.c"	r = n - (((q << 2) + q) << 1); return q + (r > 9);
0001c3   083f     movf    0x3f, 0x0        	MOVF	r0x1005,W
0001c4   00c0     movwf   0x40             	MOVWF	r0x1006
0001c5   1003     bcf     0x03, 0x0        	BCF	STATUS,0
0001c6   0d40     rlf     0x40, 0x0        	RLF	r0x1006,W
0001c7   00c1     movwf   0x41             	MOVWF	r0x1007
0001c8   1003     bcf     0x03, 0x0        	BCF	STATUS,0
0001c9   0dc1     rlf     0x41, 0x1        	RLF	r0x1007,F
0001ca   0840     movf    0x40, 0x0        	MOVF	r0x1006,W
0001cb   0741     addwf   0x41, 0x0        	ADDWF	r0x1007,W
0001cc   00c0     movwf   0x40             	MOVWF	r0x1006
0001cd   1003     bcf     0x03, 0x0        	BCF	STATUS,0
0001ce   0d40     rlf     0x40, 0x0        	RLF	r0x1006,W
0001cf   00c1     movwf   0x41             	MOVWF	r0x1007
0001d0   083e     movf    0x3e, 0x0        	MOVF	r0x1004,W
0001d1   00c0     movwf   0x40             	MOVWF	r0x1006
0001d2   0841     movf    0x41, 0x0        	MOVF	r0x1007,W
0001d3   0240     subwf   0x40, 0x0        	SUBWF	r0x1006,W
0001d4   00be     movwf   0x3e             	MOVWF	r0x1004
                                           ;;swapping arguments (AOP_TYPEs 1/2)
                                           ;;unsigned compare: left >= lit(0xA=10), size=1
0001d5   300a     movlw   0x0a             	MOVLW	0x0a
0001d6   023e     subwf   0x3e, 0x0        	SUBWF	r0x1004,W
0001d7   01c0     clrf    0x40             	CLRF	r0x1006
0001d8   0dc0     rlf     0x40, 0x1        	RLF	r0x1006,F
0001d9   0840     movf    0x40, 0x0        	MOVF	r0x1006,W
0001da   073f     addwf   0x3f, 0x0        	ADDWF	r0x1005,W
0001db   00be     movwf   0x3e             	MOVWF	r0x1004
                                           ;	.line	166; "main.c"	}
0001dc   0008     return                   	RETURN	
                                           ; exit point of _dividirby10
                                           
                                           ;***
                                           ;  pBlock Stats: dbName = C
                                           ;***
                                           ;has an exit
                                           ;9 compiler assigned registers:
                                           ;   r0x1008
                                           ;   STK00
                                           ;   r0x1009
                                           ;   r0x100A
                                           ;   r0x100B
                                           ;   r0x100C
                                           ;   r0x100D
                                           ;   r0x100E
                                           ;   r0x100F
                                           ;; Starting pCode block
                                           S_main__delay	code
                                           _delay:
                                           ; 2 exit points
                                           ;	.line	149; "main.c"	void delay(unsigned int tiempo){
000208   00b7     movwf   0x37             	MOVWF	r0x1008
000209   082f     movf    0x2f, 0x0        	MOVF	STK00,W
00020a   00b6     movwf   0x36             	MOVWF	r0x1009
                                           ;	.line	153; "main.c"	for(i=0; i<tiempo; i++)
00020b   01b8     clrf    0x38             	CLRF	r0x100A
00020c   01b9     clrf    0x39             	CLRF	r0x100B
                                           _00166_DS_:
00020d   0837     movf    0x37, 0x0        	MOVF	r0x1008,W
00020e   0239     subwf   0x39, 0x0        	SUBWF	r0x100B,W
00020f   1d03     btfss   0x03, 0x2        	BTFSS	STATUS,2
000210   2a13     goto    0x0213           	GOTO	_00187_DS_
000211   0836     movf    0x36, 0x0        	MOVF	r0x1009,W
000212   0238     subwf   0x38, 0x0        	SUBWF	r0x100A,W
                                           _00187_DS_:
000213   1803     btfsc   0x03, 0x0        	BTFSC	STATUS,0
000214   2a2e     goto    0x022e           	GOTO	_00168_DS_
                                           ;;genSkipc:3307: created from rifx:0x7fff48c0f9c0
                                           ;	.line	154; "main.c"	for(j=0; j<1275; j++);
000215   30fb     movlw   0xfb             	MOVLW	0xfb
000216   00ba     movwf   0x3a             	MOVWF	r0x100C
000217   3004     movlw   0x04             	MOVLW	0x04
000218   00bb     movwf   0x3b             	MOVWF	r0x100D
                                           _00164_DS_:
000219   30ff     movlw   0xff             	MOVLW	0xff
00021a   073a     addwf   0x3a, 0x0        	ADDWF	r0x100C,W
00021b   00bc     movwf   0x3c             	MOVWF	r0x100E
00021c   30ff     movlw   0xff             	MOVLW	0xff
00021d   00bd     movwf   0x3d             	MOVWF	r0x100F
00021e   083b     movf    0x3b, 0x0        	MOVF	r0x100D,W
00021f   1803     btfsc   0x03, 0x0        	BTFSC	STATUS,0
000220   0f3b     incfsz  0x3b, 0x0        	INCFSZ	r0x100D,W
000221   07bd     addwf   0x3d, 0x1        	ADDWF	r0x100F,F
000222   083c     movf    0x3c, 0x0        	MOVF	r0x100E,W
000223   00ba     movwf   0x3a             	MOVWF	r0x100C
000224   083d     movf    0x3d, 0x0        	MOVF	r0x100F,W
000225   00bb     movwf   0x3b             	MOVWF	r0x100D
000226   083d     movf    0x3d, 0x0        	MOVF	r0x100F,W
000227   043c     iorwf   0x3c, 0x0        	IORWF	r0x100E,W
000228   1d03     btfss   0x03, 0x2        	BTFSS	STATUS,2
000229   2a19     goto    0x0219           	GOTO	_00164_DS_
                                           ;	.line	153; "main.c"	for(i=0; i<tiempo; i++)
00022a   0ab8     incf    0x38, 0x1        	INCF	r0x100A,F
00022b   1903     btfsc   0x03, 0x2        	BTFSC	STATUS,2
00022c   0ab9     incf    0x39, 0x1        	INCF	r0x100B,F
00022d   2a0d     goto    0x020d           	GOTO	_00166_DS_
                                           _00168_DS_:
                                           ;	.line	155; "main.c"	}
00022e   0008     return                   	RETURN	
                                           ; exit point of _delay
                                           
                                           ;***
                                           ;  pBlock Stats: dbName = C
                                           ;***
                                           ;has an exit
                                           ;1 compiler assigned register :
                                           ;   r0x1010
                                           ;; Starting pCode block
                                           S_main__display	code
                                           _display:
                                           ; 2 exit points
                                           ;	.line	81; "main.c"	void display(unsigned char num){
000114   00b5     movwf   0x35             	MOVWF	r0x1010
                                           ;	.line	83; "main.c"	if (num == 0){
000115   0835     movf    0x35, 0x0        	MOVF	r0x1010,W
000116   1d03     btfss   0x03, 0x2        	BTFSS	STATUS,2
000117   291e     goto    0x011e           	GOTO	_00154_DS_
                                           ;	.line	84; "main.c"	GP0 = 0;
000118   1283     bcf     0x03, 0x5        	BANKSEL	_GPIObits
000119   1005     bcf     0x05, 0x0        	BCF	_GPIObits,0
                                           ;	.line	85; "main.c"	GP1 = 0;
00011a   1085     bcf     0x05, 0x1        	BCF	_GPIObits,1
                                           ;	.line	86; "main.c"	GP2 = 0;
00011b   1105     bcf     0x05, 0x2        	BCF	_GPIObits,2
                                           ;	.line	87; "main.c"	GP4 = 0;
00011c   1205     bcf     0x05, 0x4        	BCF	_GPIObits,4
00011d   2977     goto    0x0177           	GOTO	_00156_DS_
                                           _00154_DS_:
                                           ;	.line	89; "main.c"	else if (num == 1){
00011e   0835     movf    0x35, 0x0        	MOVF	r0x1010,W
00011f   3a01     xorlw   0x01             	XORLW	0x01
000120   1d03     btfss   0x03, 0x2        	BTFSS	STATUS,2
000121   2928     goto    0x0128           	GOTO	_00151_DS_
                                           ;	.line	90; "main.c"	GP0 = 1;
000122   1283     bcf     0x03, 0x5        	BANKSEL	_GPIObits
000123   1405     bsf     0x05, 0x0        	BSF	_GPIObits,0
                                           ;	.line	91; "main.c"	GP1 = 0;
000124   1085     bcf     0x05, 0x1        	BCF	_GPIObits,1
                                           ;	.line	92; "main.c"	GP2 = 0;
000125   1105     bcf     0x05, 0x2        	BCF	_GPIObits,2
                                           ;	.line	93; "main.c"	GP4 = 0;
000126   1205     bcf     0x05, 0x4        	BCF	_GPIObits,4
000127   2977     goto    0x0177           	GOTO	_00156_DS_
                                           _00151_DS_:
                                           ;	.line	95; "main.c"	else if (num == 2){
000128   0835     movf    0x35, 0x0        	MOVF	r0x1010,W
000129   3a02     xorlw   0x02             	XORLW	0x02
00012a   1d03     btfss   0x03, 0x2        	BTFSS	STATUS,2
00012b   2932     goto    0x0132           	GOTO	_00148_DS_
                                           ;	.line	96; "main.c"	GP0 = 0;
00012c   1283     bcf     0x03, 0x5        	BANKSEL	_GPIObits
00012d   1005     bcf     0x05, 0x0        	BCF	_GPIObits,0
                                           ;	.line	97; "main.c"	GP1 = 1;
00012e   1485     bsf     0x05, 0x1        	BSF	_GPIObits,1
                                           ;	.line	98; "main.c"	GP2 = 0;
00012f   1105     bcf     0x05, 0x2        	BCF	_GPIObits,2
                                           ;	.line	99; "main.c"	GP4 = 0;
000130   1205     bcf     0x05, 0x4        	BCF	_GPIObits,4
000131   2977     goto    0x0177           	GOTO	_00156_DS_
                                           _00148_DS_:
                                           ;	.line	101; "main.c"	else if (num == 3){
000132   0835     movf    0x35, 0x0        	MOVF	r0x1010,W
000133   3a03     xorlw   0x03             	XORLW	0x03
000134   1d03     btfss   0x03, 0x2        	BTFSS	STATUS,2
000135   293c     goto    0x013c           	GOTO	_00145_DS_
                                           ;	.line	102; "main.c"	GP0 = 1;
000136   1283     bcf     0x03, 0x5        	BANKSEL	_GPIObits
000137   1405     bsf     0x05, 0x0        	BSF	_GPIObits,0
                                           ;	.line	103; "main.c"	GP1 = 1;
000138   1485     bsf     0x05, 0x1        	BSF	_GPIObits,1
                                           ;	.line	104; "main.c"	GP2 = 0;
000139   1105     bcf     0x05, 0x2        	BCF	_GPIObits,2
                                           ;	.line	105; "main.c"	GP4 = 0;
00013a   1205     bcf     0x05, 0x4        	BCF	_GPIObits,4
00013b   2977     goto    0x0177           	GOTO	_00156_DS_
                                           _00145_DS_:
                                           ;	.line	107; "main.c"	else if (num == 4){
00013c   0835     movf    0x35, 0x0        	MOVF	r0x1010,W
00013d   3a04     xorlw   0x04             	XORLW	0x04
00013e   1d03     btfss   0x03, 0x2        	BTFSS	STATUS,2
00013f   2946     goto    0x0146           	GOTO	_00142_DS_
                                           ;	.line	108; "main.c"	GP0 = 0;
000140   1283     bcf     0x03, 0x5        	BANKSEL	_GPIObits
000141   1005     bcf     0x05, 0x0        	BCF	_GPIObits,0
                                           ;	.line	109; "main.c"	GP1 = 0;
000142   1085     bcf     0x05, 0x1        	BCF	_GPIObits,1
                                           ;	.line	110; "main.c"	GP2 = 1;
000143   1505     bsf     0x05, 0x2        	BSF	_GPIObits,2
                                           ;	.line	111; "main.c"	GP4 = 0;
000144   1205     bcf     0x05, 0x4        	BCF	_GPIObits,4
000145   2977     goto    0x0177           	GOTO	_00156_DS_
                                           _00142_DS_:
                                           ;	.line	113; "main.c"	else if (num == 5){
000146   0835     movf    0x35, 0x0        	MOVF	r0x1010,W
000147   3a05     xorlw   0x05             	XORLW	0x05
000148   1d03     btfss   0x03, 0x2        	BTFSS	STATUS,2
000149   2950     goto    0x0150           	GOTO	_00139_DS_
                                           ;	.line	114; "main.c"	GP0 = 1;
00014a   1283     bcf     0x03, 0x5        	BANKSEL	_GPIObits
00014b   1405     bsf     0x05, 0x0        	BSF	_GPIObits,0
                                           ;	.line	115; "main.c"	GP1 = 0;
00014c   1085     bcf     0x05, 0x1        	BCF	_GPIObits,1
                                           ;	.line	116; "main.c"	GP2 = 1;
00014d   1505     bsf     0x05, 0x2        	BSF	_GPIObits,2
                                           ;	.line	117; "main.c"	GP4 = 0;
00014e   1205     bcf     0x05, 0x4        	BCF	_GPIObits,4
00014f   2977     goto    0x0177           	GOTO	_00156_DS_
                                           _00139_DS_:
                                           ;	.line	120; "main.c"	else if (num == 6){
000150   0835     movf    0x35, 0x0        	MOVF	r0x1010,W
000151   3a06     xorlw   0x06             	XORLW	0x06
000152   1d03     btfss   0x03, 0x2        	BTFSS	STATUS,2
000153   295a     goto    0x015a           	GOTO	_00136_DS_
                                           ;	.line	121; "main.c"	GP0 = 0;
000154   1283     bcf     0x03, 0x5        	BANKSEL	_GPIObits
000155   1005     bcf     0x05, 0x0        	BCF	_GPIObits,0
                                           ;	.line	122; "main.c"	GP1 = 1;
000156   1485     bsf     0x05, 0x1        	BSF	_GPIObits,1
                                           ;	.line	123; "main.c"	GP2 = 1;
000157   1505     bsf     0x05, 0x2        	BSF	_GPIObits,2
                                           ;	.line	124; "main.c"	GP4 = 0;    
000158   1205     bcf     0x05, 0x4        	BCF	_GPIObits,4
000159   2977     goto    0x0177           	GOTO	_00156_DS_
                                           _00136_DS_:
                                           ;	.line	126; "main.c"	else if (num == 7){
00015a   0835     movf    0x35, 0x0        	MOVF	r0x1010,W
00015b   3a07     xorlw   0x07             	XORLW	0x07
00015c   1d03     btfss   0x03, 0x2        	BTFSS	STATUS,2
00015d   2964     goto    0x0164           	GOTO	_00133_DS_
                                           ;	.line	127; "main.c"	GP0 = 1;
00015e   1283     bcf     0x03, 0x5        	BANKSEL	_GPIObits
00015f   1405     bsf     0x05, 0x0        	BSF	_GPIObits,0
                                           ;	.line	128; "main.c"	GP1 = 1;
000160   1485     bsf     0x05, 0x1        	BSF	_GPIObits,1
                                           ;	.line	129; "main.c"	GP2 = 1;
000161   1505     bsf     0x05, 0x2        	BSF	_GPIObits,2
                                           ;	.line	130; "main.c"	GP4 = 0;
000162   1205     bcf     0x05, 0x4        	BCF	_GPIObits,4
000163   2977     goto    0x0177           	GOTO	_00156_DS_
                                           _00133_DS_:
                                           ;	.line	132; "main.c"	else if (num == 8){
000164   0835     movf    0x35, 0x0        	MOVF	r0x1010,W
000165   3a08     xorlw   0x08             	XORLW	0x08
000166   1d03     btfss   0x03, 0x2        	BTFSS	STATUS,2
000167   296e     goto    0x016e           	GOTO	_00130_DS_
                                           ;	.line	133; "main.c"	GP0 = 0;
000168   1283     bcf     0x03, 0x5        	BANKSEL	_GPIObits
000169   1005     bcf     0x05, 0x0        	BCF	_GPIObits,0
                                           ;	.line	134; "main.c"	GP1 = 0;
00016a   1085     bcf     0x05, 0x1        	BCF	_GPIObits,1
                                           ;	.line	135; "main.c"	GP2 = 0;
00016b   1105     bcf     0x05, 0x2        	BCF	_GPIObits,2
                                           ;	.line	136; "main.c"	GP4 = 1;
00016c   1605     bsf     0x05, 0x4        	BSF	_GPIObits,4
00016d   2977     goto    0x0177           	GOTO	_00156_DS_
                                           _00130_DS_:
                                           ;	.line	138; "main.c"	else if (num == 9){
00016e   0835     movf    0x35, 0x0        	MOVF	r0x1010,W
00016f   3a09     xorlw   0x09             	XORLW	0x09
000170   1d03     btfss   0x03, 0x2        	BTFSS	STATUS,2
000171   2977     goto    0x0177           	GOTO	_00156_DS_
                                           ;	.line	139; "main.c"	GP0 = 1;
000172   1283     bcf     0x03, 0x5        	BANKSEL	_GPIObits
000173   1405     bsf     0x05, 0x0        	BSF	_GPIObits,0
                                           ;	.line	140; "main.c"	GP1 = 0;
000174   1085     bcf     0x05, 0x1        	BCF	_GPIObits,1
                                           ;	.line	141; "main.c"	GP2 = 0;
000175   1105     bcf     0x05, 0x2        	BCF	_GPIObits,2
                                           ;	.line	142; "main.c"	GP4 = 1;
000176   1605     bsf     0x05, 0x4        	BSF	_GPIObits,4
                                           _00156_DS_:
                                           ;	.line	146; "main.c"	}
000177   0008     return                   	RETURN	
                                           ; exit point of _display
                                           
                                           
                                           ;	code size estimation:
                                           ;	  298+   50 =   348 instructions (  796 byte)
                                           
                                           	end
